; Function Attrs: mustprogress nofree norecurse nosync nounwind willreturn memory(read, inaccessiblemem: none) uwtable
define hidden noundef ptr @_ZN11proto_model11get_factoryEi(ptr nocapture noundef nonnull readonly align 8 dereferenceable(177) %this, i32 noundef %fid) local_unnamed_addr #8 align 2 {
entry:
  %cmp.i = icmp eq i32 %fid, -1
  br i1 %cmp.i, label %_ZNK14plugin_managerI13value_factoryE10get_pluginEi.exit, label %if.end.i

if.end.i:                                         ; preds = %entry
  %m_factories = getelementptr inbounds i8, ptr %this, i64 96
  %0 = load ptr, ptr %m_factories, align 8
  %cmp.i.i.i = icmp eq ptr %0, null
  br i1 %cmp.i.i.i, label %_ZNK14plugin_managerI13value_factoryE10get_pluginEi.exit, label %_ZNK6vectorIP13value_factoryLb0EjE3getEjRKS1_.exit.i

_ZNK6vectorIP13value_factoryLb0EjE3getEjRKS1_.exit.i: ; preds = %if.end.i
  %arrayidx.i.i.i = getelementptr inbounds i8, ptr %0, i64 -4
  %1 = load i32, ptr %arrayidx.i.i.i, align 4
  %cmp.not.i.i = icmp ugt i32 %1, %fid
  br i1 %cmp.not.i.i, label %_ZNK6vectorIP13value_factoryLb0EjE3getEjRKS1_.exit.then.i, label %_ZNK14plugin_managerI13value_factoryE10get_pluginEi.exit

_ZNK6vectorIP13value_factoryLb0EjE3getEjRKS1_.exit.then.i: ; preds = %_ZNK6vectorIP13value_factoryLb0EjE3getEjRKS1_.exit.i
  %idxprom.i.i = zext i32 %fid to i64
  %arrayidx.i.i = getelementptr inbounds ptr, ptr %0, i64 %idxprom.i.i
  %.then.val.i = load ptr, ptr %arrayidx.i.i, align 8
  br label %_ZNK14plugin_managerI13value_factoryE10get_pluginEi.exit

_ZNK14plugin_managerI13value_factoryE10get_pluginEi.exit: ; preds = %entry, %if.end.i, %_ZNK6vectorIP13value_factoryLb0EjE3getEjRKS1_.exit.i, %_ZNK6vectorIP13value_factoryLb0EjE3getEjRKS1_.exit.then.i
  %retval.0.i = phi ptr [ null, %entry ], [ %.then.val.i, %_ZNK6vectorIP13value_factoryLb0EjE3getEjRKS1_.exit.then.i ], [ null, %_ZNK6vectorIP13value_factoryLb0EjE3getEjRKS1_.exit.i ], [ null, %if.end.i ]
  ret ptr %retval.0.i
}